target datalayout = "e-m:e-p270:32:32-p271:32:32-p272:64:64-i64:64-i128:128-f80:128-n8:16:32:64-S128"
target triple = "x86_64-pc-linux-gnu"

%struct.DdManager = type { %struct.DdNode, ptr, ptr, ptr, ptr, ptr, ptr, ptr, i32, i32, double, double, double, i32, i32, i32, i32, i32, i32, ptr, ptr, %struct.DdSubtable, i32, i32, i32, i32, i32, i32, i32, double, i32, i32, i32, ptr, i64, double, i32, ptr, ptr, ptr, ptr, ptr, ptr, ptr, i32, ptr, ptr, ptr, ptr, ptr, ptr, i32, i32, i32, double, i32, i32, i32, i32, double, double, i32, i32, i32, i32, i32, i32, i32, i32, i32, ptr, ptr, i32, i32, i32, i32, i32, i32, ptr, ptr, ptr, ptr, ptr, ptr, ptr, ptr, i32, i64, i64, i64, i32, i64, i64, double, double, double, double, double, double, i32, ptr, ptr, i64 }
%struct.DdNode = type { i32, i32, ptr, %union.anon, i64 }
%union.anon = type { %struct.DdChildren }
%struct.DdChildren = type { ptr, ptr }
%struct.DdSubtable = type { ptr, i32, i32, i32, i32, i32, i32, i32, i32, i32, i32, i32 }

; Function Attrs: nounwind uwtable
define ptr @Cudd_addTimes(ptr noundef %0, ptr noundef %1, ptr noundef %2) #0 {
  %4 = alloca ptr, align 8
  %5 = alloca ptr, align 8
  %6 = alloca ptr, align 8
  %7 = alloca ptr, align 8
  %8 = alloca ptr, align 8
  %9 = alloca ptr, align 8
  %10 = alloca ptr, align 8
  %11 = alloca double, align 8
  %12 = alloca i32, align 4
  store ptr %0, ptr %5, align 8, !tbaa !3
  store ptr %1, ptr %6, align 8, !tbaa !35
  store ptr %2, ptr %7, align 8, !tbaa !35
  call void @llvm.lifetime.start.p0(i64 8, ptr %8) #4
  call void @llvm.lifetime.start.p0(i64 8, ptr %9) #4
  call void @llvm.lifetime.start.p0(i64 8, ptr %10) #4
  call void @llvm.lifetime.start.p0(i64 8, ptr %11) #4
  %13 = load ptr, ptr %6, align 8, !tbaa !35
  %14 = load ptr, ptr %13, align 8, !tbaa !9
  store ptr %14, ptr %9, align 8, !tbaa !9
  %15 = load ptr, ptr %7, align 8, !tbaa !35
  %16 = load ptr, ptr %15, align 8, !tbaa !9
  store ptr %16, ptr %10, align 8, !tbaa !9
  %17 = load ptr, ptr %9, align 8, !tbaa !9
  %18 = load ptr, ptr %5, align 8, !tbaa !3
  %19 = getelementptr inbounds nuw %struct.DdManager, ptr %18, i32 0, i32 2
  %20 = load ptr, ptr %19, align 8, !tbaa !36
  %21 = icmp eq ptr %17, %20
  br i1 %21, label %28, label %22

22:                                               ; preds = %3
  %23 = load ptr, ptr %10, align 8, !tbaa !9
  %24 = load ptr, ptr %5, align 8, !tbaa !3
  %25 = getelementptr inbounds nuw %struct.DdManager, ptr %24, i32 0, i32 2
  %26 = load ptr, ptr %25, align 8, !tbaa !36
  %27 = icmp eq ptr %23, %26
  br i1 %27, label %28, label %32

28:                                               ; preds = %22, %3
  %29 = load ptr, ptr %5, align 8, !tbaa !3
  %30 = getelementptr inbounds nuw %struct.DdManager, ptr %29, i32 0, i32 2
  %31 = load ptr, ptr %30, align 8, !tbaa !36
  store ptr %31, ptr %4, align 8
  store i32 1, ptr %12, align 4
  br label %80

32:                                               ; preds = %22
  %33 = load ptr, ptr %9, align 8, !tbaa !9
  %34 = load ptr, ptr %5, align 8, !tbaa !3
  %35 = getelementptr inbounds nuw %struct.DdManager, ptr %34, i32 0, i32 1
  %36 = load ptr, ptr %35, align 8, !tbaa !38
  %37 = icmp eq ptr %33, %36
  br i1 %37, label %38, label %40

38:                                               ; preds = %32
  %39 = load ptr, ptr %10, align 8, !tbaa !9
  store ptr %39, ptr %4, align 8
  store i32 1, ptr %12, align 4
  br label %80

40:                                               ; preds = %32
  %41 = load ptr, ptr %10, align 8, !tbaa !9
  %42 = load ptr, ptr %5, align 8, !tbaa !3
  %43 = getelementptr inbounds nuw %struct.DdManager, ptr %42, i32 0, i32 1
  %44 = load ptr, ptr %43, align 8, !tbaa !38
  %45 = icmp eq ptr %41, %44
  br i1 %45, label %46, label %48

46:                                               ; preds = %40
  %47 = load ptr, ptr %9, align 8, !tbaa !9
  store ptr %47, ptr %4, align 8
  store i32 1, ptr %12, align 4
  br label %80

48:                                               ; preds = %40
  %49 = load ptr, ptr %9, align 8, !tbaa !9
  %50 = getelementptr inbounds nuw %struct.DdNode, ptr %49, i32 0, i32 0
  %51 = load i32, ptr %50, align 8, !tbaa !30
  %52 = icmp eq i32 %51, 2147483647
  br i1 %52, label %53, label %70

53:                                               ; preds = %48
  %54 = load ptr, ptr %10, align 8, !tbaa !9
  %55 = getelementptr inbounds nuw %struct.DdNode, ptr %54, i32 0, i32 0
  %56 = load i32, ptr %55, align 8, !tbaa !30
  %57 = icmp eq i32 %56, 2147483647
  br i1 %57, label %58, label %70

58:                                               ; preds = %53
  %59 = load ptr, ptr %9, align 8, !tbaa !9
  %60 = getelementptr inbounds nuw %struct.DdNode, ptr %59, i32 0, i32 3
  %61 = load double, ptr %60, align 8, !tbaa !33
  %62 = load ptr, ptr %10, align 8, !tbaa !9
  %63 = getelementptr inbounds nuw %struct.DdNode, ptr %62, i32 0, i32 3
  %64 = load double, ptr %63, align 8, !tbaa !33
  %65 = fmul double %61, %64
  store double %65, ptr %11, align 8, !tbaa !37
  %66 = load ptr, ptr %5, align 8, !tbaa !3
  %67 = load double, ptr %11, align 8, !tbaa !37
  %68 = call ptr @cuddUniqueConst(ptr noundef %66, double noundef %67)
  store ptr %68, ptr %8, align 8, !tbaa !9
  %69 = load ptr, ptr %8, align 8, !tbaa !9
  store ptr %69, ptr %4, align 8
  store i32 1, ptr %12, align 4
  br label %80

70:                                               ; preds = %53, %48
  %71 = load ptr, ptr %9, align 8, !tbaa !9
  %72 = load ptr, ptr %10, align 8, !tbaa !9
  %73 = icmp ugt ptr %71, %72
  br i1 %73, label %74, label %79

74:                                               ; preds = %70
  %75 = load ptr, ptr %10, align 8, !tbaa !9
  %76 = load ptr, ptr %6, align 8, !tbaa !35
  store ptr %75, ptr %76, align 8, !tbaa !9
  %77 = load ptr, ptr %9, align 8, !tbaa !9
  %78 = load ptr, ptr %7, align 8, !tbaa !35
  store ptr %77, ptr %78, align 8, !tbaa !9
  br label %79

79:                                               ; preds = %74, %70
  store ptr null, ptr %4, align 8
  store i32 1, ptr %12, align 4
  br label %80

80:                                               ; preds = %79, %58, %46, %38, %28
  call void @llvm.lifetime.end.p0(i64 8, ptr %11) #4
  call void @llvm.lifetime.end.p0(i64 8, ptr %10) #4
  call void @llvm.lifetime.end.p0(i64 8, ptr %9) #4
  call void @llvm.lifetime.end.p0(i64 8, ptr %8) #4
  %81 = load ptr, ptr %4, align 8
  ret ptr %81
}