; Function Attrs: nounwind uwtable
define ptr @Cudd_addTimes(ptr noundef %0, ptr noundef captures(none) %1, ptr noundef captures(none) %2) local_unnamed_addr #0 {
  %4 = load ptr, ptr %1, align 8, !tbaa !26
  %5 = load ptr, ptr %2, align 8, !tbaa !26
  %6 = getelementptr inbounds nuw i8, ptr %0, i64 48
  %7 = load ptr, ptr %6, align 8, !tbaa !32
  %8 = icmp eq ptr %4, %7
  %9 = icmp eq ptr %5, %7
  %or.cond = select i1 %8, i1 true, i1 %9
  br i1 %or.cond, label %32, label %10

10:                                               ; preds = %3
  %11 = getelementptr inbounds nuw i8, ptr %0, i64 40
  %12 = load ptr, ptr %11, align 8, !tbaa !33
  %13 = icmp eq ptr %4, %12
  br i1 %13, label %32, label %14

14:                                               ; preds = %10
  %15 = icmp eq ptr %5, %12
  br i1 %15, label %32, label %16

16:                                               ; preds = %14
  %17 = load i32, ptr %4, align 8, !tbaa !27
  %18 = icmp eq i32 %17, 2147483647
  br i1 %18, label %19, label %29

19:                                               ; preds = %16
  %20 = load i32, ptr %5, align 8, !tbaa !27
  %21 = icmp eq i32 %20, 2147483647
  br i1 %21, label %22, label %29

22:                                               ; preds = %19
  %23 = getelementptr inbounds nuw i8, ptr %4, i64 16
  %24 = load double, ptr %23, align 8, !tbaa !30
  %25 = getelementptr inbounds nuw i8, ptr %5, i64 16
  %26 = load double, ptr %25, align 8, !tbaa !30
  %27 = fmul double %24, %26
  %28 = tail call ptr @cuddUniqueConst(ptr noundef nonnull %0, double noundef %27) #5
  br label %32

29:                                               ; preds = %19, %16
  %30 = icmp ugt ptr %4, %5
  br i1 %30, label %31, label %32

31:                                               ; preds = %29
  store ptr %5, ptr %1, align 8, !tbaa !26
  store ptr %4, ptr %2, align 8, !tbaa !26
  br label %32

32:                                               ; preds = %3, %29, %31, %14, %10, %22
  %.0 = phi ptr [ %28, %22 ], [ %5, %10 ], [ %4, %14 ], [ null, %31 ], [ null, %29 ], [ %7, %3 ]
  ret ptr %.0
}